target datalayout = "e-m:e-p270:32:32-p271:32:32-p272:64:64-i64:64-i128:128-f80:128-n8:16:32:64-S128"
target triple = "x86_64-pc-linux-gnu"

%struct.anon = type { [3 x double] }
%struct._generic_N_Vector = type { ptr, ptr, ptr }
%struct._N_VectorContent_Serial = type { i64, i32, ptr }
%struct._generic_SUNMatrix = type { ptr, ptr, ptr }
%struct._SUNMatrixContent_Dense = type { i64, i64, ptr, i64, ptr }

; Function Attrs: nounwind uwtable
define internal i32 @JacB(double noundef %0, double noundef %1, ptr noundef %2, ptr noundef %3, ptr noundef %4, ptr noundef %5, ptr noundef %6, ptr noundef %7, ptr noundef %8, ptr noundef %9, ptr noundef %10, ptr noundef %11) #0 {
  %13 = alloca double, align 8
  %14 = alloca double, align 8
  %15 = alloca ptr, align 8
  %16 = alloca ptr, align 8
  %17 = alloca ptr, align 8
  %18 = alloca ptr, align 8
  %19 = alloca ptr, align 8
  %20 = alloca ptr, align 8
  %21 = alloca ptr, align 8
  %22 = alloca ptr, align 8
  %23 = alloca ptr, align 8
  %24 = alloca ptr, align 8
  %25 = alloca double, align 8
  %26 = alloca double, align 8
  %27 = alloca ptr, align 8
  %28 = alloca double, align 8
  %29 = alloca double, align 8
  %30 = alloca double, align 8
  store double %0, ptr %13, align 8, !tbaa !18
  store double %1, ptr %14, align 8, !tbaa !18
  store ptr %2, ptr %15, align 8, !tbaa !16
  store ptr %3, ptr %16, align 8, !tbaa !16
  store ptr %4, ptr %17, align 8, !tbaa !16
  store ptr %5, ptr %18, align 8, !tbaa !16
  store ptr %6, ptr %19, align 8, !tbaa !16
  store ptr %7, ptr %20, align 8, !tbaa !12
  store ptr %8, ptr %21, align 8, !tbaa !11
  store ptr %9, ptr %22, align 8, !tbaa !16
  store ptr %10, ptr %23, align 8, !tbaa !16
  store ptr %11, ptr %24, align 8, !tbaa !16
  call void @llvm.lifetime.start.p0(i64 8, ptr %25) #6
  call void @llvm.lifetime.start.p0(i64 8, ptr %26) #6
  call void @llvm.lifetime.start.p0(i64 8, ptr %27) #6
  call void @llvm.lifetime.start.p0(i64 8, ptr %28) #6
  call void @llvm.lifetime.start.p0(i64 8, ptr %29) #6
  call void @llvm.lifetime.start.p0(i64 8, ptr %30) #6
  %31 = load ptr, ptr %15, align 8, !tbaa !16
  %32 = getelementptr inbounds nuw %struct._generic_N_Vector, ptr %31, i32 0, i32 0
  %33 = load ptr, ptr %32, align 8, !tbaa !22
  %34 = getelementptr inbounds nuw %struct._N_VectorContent_Serial, ptr %33, i32 0, i32 2
  %35 = load ptr, ptr %34, align 8, !tbaa !25
  %36 = getelementptr inbounds double, ptr %35, i64 1
  %37 = load double, ptr %36, align 8, !tbaa !18
  store double %37, ptr %25, align 8, !tbaa !18
  %38 = load ptr, ptr %15, align 8, !tbaa !16
  %39 = getelementptr inbounds nuw %struct._generic_N_Vector, ptr %38, i32 0, i32 0
  %40 = load ptr, ptr %39, align 8, !tbaa !22
  %41 = getelementptr inbounds nuw %struct._N_VectorContent_Serial, ptr %40, i32 0, i32 2
  %42 = load ptr, ptr %41, align 8, !tbaa !25
  %43 = getelementptr inbounds double, ptr %42, i64 2
  %44 = load double, ptr %43, align 8, !tbaa !18
  store double %44, ptr %26, align 8, !tbaa !18
  %45 = load ptr, ptr %21, align 8, !tbaa !11
  store ptr %45, ptr %27, align 8, !tbaa !11
  %46 = load ptr, ptr %27, align 8, !tbaa !11
  %47 = getelementptr inbounds nuw %struct.anon, ptr %46, i32 0, i32 0
  %48 = getelementptr inbounds [3 x double], ptr %47, i64 0, i64 0
  %49 = load double, ptr %48, align 8, !tbaa !18
  store double %49, ptr %28, align 8, !tbaa !18
  %50 = load ptr, ptr %27, align 8, !tbaa !11
  %51 = getelementptr inbounds nuw %struct.anon, ptr %50, i32 0, i32 0
  %52 = getelementptr inbounds [3 x double], ptr %51, i64 0, i64 1
  %53 = load double, ptr %52, align 8, !tbaa !18
  store double %53, ptr %29, align 8, !tbaa !18
  %54 = load ptr, ptr %27, align 8, !tbaa !11
  %55 = getelementptr inbounds nuw %struct.anon, ptr %54, i32 0, i32 0
  %56 = getelementptr inbounds [3 x double], ptr %55, i64 0, i64 2
  %57 = load double, ptr %56, align 8, !tbaa !18
  store double %57, ptr %30, align 8, !tbaa !18
  %58 = load double, ptr %28, align 8, !tbaa !18
  %59 = fneg double %58
  %60 = load double, ptr %14, align 8, !tbaa !18
  %61 = fadd double %59, %60
  %62 = load ptr, ptr %20, align 8, !tbaa !12
  %63 = getelementptr inbounds nuw %struct._generic_SUNMatrix, ptr %62, i32 0, i32 0
  %64 = load ptr, ptr %63, align 8, !tbaa !36
  %65 = getelementptr inbounds nuw %struct._SUNMatrixContent_Dense, ptr %64, i32 0, i32 4
  %66 = load ptr, ptr %65, align 8, !tbaa !39
  %67 = getelementptr inbounds ptr, ptr %66, i64 0
  %68 = load ptr, ptr %67, align 8, !tbaa !35
  %69 = getelementptr inbounds double, ptr %68, i64 0
  store double %61, ptr %69, align 8, !tbaa !18
  %70 = load double, ptr %28, align 8, !tbaa !18
  %71 = load ptr, ptr %20, align 8, !tbaa !12
  %72 = getelementptr inbounds nuw %struct._generic_SUNMatrix, ptr %71, i32 0, i32 0
  %73 = load ptr, ptr %72, align 8, !tbaa !36
  %74 = getelementptr inbounds nuw %struct._SUNMatrixContent_Dense, ptr %73, i32 0, i32 4
  %75 = load ptr, ptr %74, align 8, !tbaa !39
  %76 = getelementptr inbounds ptr, ptr %75, i64 1
  %77 = load ptr, ptr %76, align 8, !tbaa !35
  %78 = getelementptr inbounds double, ptr %77, i64 0
  store double %70, ptr %78, align 8, !tbaa !18
  %79 = load ptr, ptr %20, align 8, !tbaa !12
  %80 = getelementptr inbounds nuw %struct._generic_SUNMatrix, ptr %79, i32 0, i32 0
  %81 = load ptr, ptr %80, align 8, !tbaa !36
  %82 = getelementptr inbounds nuw %struct._SUNMatrixContent_Dense, ptr %81, i32 0, i32 4
  %83 = load ptr, ptr %82, align 8, !tbaa !39
  %84 = getelementptr inbounds ptr, ptr %83, i64 2
  %85 = load ptr, ptr %84, align 8, !tbaa !35
  %86 = getelementptr inbounds double, ptr %85, i64 0
  store double -1.000000e+00, ptr %86, align 8, !tbaa !18
  %87 = load double, ptr %29, align 8, !tbaa !18
  %88 = load double, ptr %26, align 8, !tbaa !18
  %89 = fmul double %87, %88
  %90 = load ptr, ptr %20, align 8, !tbaa !12
  %91 = getelementptr inbounds nuw %struct._generic_SUNMatrix, ptr %90, i32 0, i32 0
  %92 = load ptr, ptr %91, align 8, !tbaa !36
  %93 = getelementptr inbounds nuw %struct._SUNMatrixContent_Dense, ptr %92, i32 0, i32 4
  %94 = load ptr, ptr %93, align 8, !tbaa !39
  %95 = getelementptr inbounds ptr, ptr %94, i64 0
  %96 = load ptr, ptr %95, align 8, !tbaa !35
  %97 = getelementptr inbounds double, ptr %96, i64 1
  store double %89, ptr %97, align 8, !tbaa !18
  %98 = load double, ptr %29, align 8, !tbaa !18
  %99 = load double, ptr %26, align 8, !tbaa !18
  %100 = load double, ptr %30, align 8, !tbaa !18
  %101 = fmul double 2.000000e+00, %100
  %102 = load double, ptr %25, align 8, !tbaa !18
  %103 = fmul double %101, %102
  %104 = call double @llvm.fmuladd.f64(double %98, double %99, double %103)
  %105 = fneg double %104
  %106 = load double, ptr %14, align 8, !tbaa !18
  %107 = fadd double %105, %106
  %108 = load ptr, ptr %20, align 8, !tbaa !12
  %109 = getelementptr inbounds nuw %struct._generic_SUNMatrix, ptr %108, i32 0, i32 0
  %110 = load ptr, ptr %109, align 8, !tbaa !36
  %111 = getelementptr inbounds nuw %struct._SUNMatrixContent_Dense, ptr %110, i32 0, i32 4
  %112 = load ptr, ptr %111, align 8, !tbaa !39
  %113 = getelementptr inbounds ptr, ptr %112, i64 1
  %114 = load ptr, ptr %113, align 8, !tbaa !35
  %115 = getelementptr inbounds double, ptr %114, i64 1
  store double %107, ptr %115, align 8, !tbaa !18
  %116 = load ptr, ptr %20, align 8, !tbaa !12
  %117 = getelementptr inbounds nuw %struct._generic_SUNMatrix, ptr %116, i32 0, i32 0
  %118 = load ptr, ptr %117, align 8, !tbaa !36
  %119 = getelementptr inbounds nuw %struct._SUNMatrixContent_Dense, ptr %118, i32 0, i32 4
  %120 = load ptr, ptr %119, align 8, !tbaa !39
  %121 = getelementptr inbounds ptr, ptr %120, i64 2
  %122 = load ptr, ptr %121, align 8, !tbaa !35
  %123 = getelementptr inbounds double, ptr %122, i64 1
  store double -1.000000e+00, ptr %123, align 8, !tbaa !18
  %124 = load double, ptr %29, align 8, !tbaa !18
  %125 = load double, ptr %25, align 8, !tbaa !18
  %126 = fmul double %124, %125
  %127 = load ptr, ptr %20, align 8, !tbaa !12
  %128 = getelementptr inbounds nuw %struct._generic_SUNMatrix, ptr %127, i32 0, i32 0
  %129 = load ptr, ptr %128, align 8, !tbaa !36
  %130 = getelementptr inbounds nuw %struct._SUNMatrixContent_Dense, ptr %129, i32 0, i32 4
  %131 = load ptr, ptr %130, align 8, !tbaa !39
  %132 = getelementptr inbounds ptr, ptr %131, i64 0
  %133 = load ptr, ptr %132, align 8, !tbaa !35
  %134 = getelementptr inbounds double, ptr %133, i64 2
  store double %126, ptr %134, align 8, !tbaa !18
  %135 = load double, ptr %29, align 8, !tbaa !18
  %136 = fneg double %135
  %137 = load double, ptr %25, align 8, !tbaa !18
  %138 = fmul double %136, %137
  %139 = load ptr, ptr %20, align 8, !tbaa !12
  %140 = getelementptr inbounds nuw %struct._generic_SUNMatrix, ptr %139, i32 0, i32 0
  %141 = load ptr, ptr %140, align 8, !tbaa !36
  %142 = getelementptr inbounds nuw %struct._SUNMatrixContent_Dense, ptr %141, i32 0, i32 4
  %143 = load ptr, ptr %142, align 8, !tbaa !39
  %144 = getelementptr inbounds ptr, ptr %143, i64 1
  %145 = load ptr, ptr %144, align 8, !tbaa !35
  %146 = getelementptr inbounds double, ptr %145, i64 2
  store double %138, ptr %146, align 8, !tbaa !18
  %147 = load ptr, ptr %20, align 8, !tbaa !12
  %148 = getelementptr inbounds nuw %struct._generic_SUNMatrix, ptr %147, i32 0, i32 0
  %149 = load ptr, ptr %148, align 8, !tbaa !36
  %150 = getelementptr inbounds nuw %struct._SUNMatrixContent_Dense, ptr %149, i32 0, i32 4
  %151 = load ptr, ptr %150, align 8, !tbaa !39
  %152 = getelementptr inbounds ptr, ptr %151, i64 2
  %153 = load ptr, ptr %152, align 8, !tbaa !35
  %154 = getelementptr inbounds double, ptr %153, i64 2
  store double -1.000000e+00, ptr %154, align 8, !tbaa !18
  call void @llvm.lifetime.end.p0(i64 8, ptr %30) #6
  call void @llvm.lifetime.end.p0(i64 8, ptr %29) #6
  call void @llvm.lifetime.end.p0(i64 8, ptr %28) #6
  call void @llvm.lifetime.end.p0(i64 8, ptr %27) #6
  call void @llvm.lifetime.end.p0(i64 8, ptr %26) #6
  call void @llvm.lifetime.end.p0(i64 8, ptr %25) #6
  ret i32 0
}