; Function Attrs: mustprogress nofree norecurse nosync nounwind willreturn memory(readwrite, inaccessiblemem: none) uwtable
define internal noundef i32 @JacB(double %0, double noundef %1, ptr noundef readonly captures(none) %2, ptr readnone captures(none) %3, ptr readnone captures(none) %4, ptr readnone captures(none) %5, ptr readnone captures(none) %6, ptr noundef readonly captures(none) %7, ptr noundef readonly captures(none) %8, ptr readnone captures(none) %9, ptr readnone captures(none) %10, ptr readnone captures(none) %11) #6 {
  %13 = load ptr, ptr %2, align 8, !tbaa !13
  %14 = getelementptr inbounds nuw i8, ptr %13, i64 16
  %15 = load ptr, ptr %14, align 8, !tbaa !16
  %16 = getelementptr inbounds nuw i8, ptr %15, i64 8
  %17 = load double, ptr %16, align 8, !tbaa !9
  %18 = getelementptr inbounds nuw i8, ptr %15, i64 16
  %19 = load double, ptr %18, align 8, !tbaa !9
  %20 = load double, ptr %8, align 8, !tbaa !9
  %21 = getelementptr inbounds nuw i8, ptr %8, i64 8
  %22 = load double, ptr %21, align 8, !tbaa !9
  %23 = getelementptr inbounds nuw i8, ptr %8, i64 16
  %24 = load double, ptr %23, align 8, !tbaa !9
  %25 = fsub double %1, %20
  %26 = load ptr, ptr %7, align 8, !tbaa !23
  %27 = getelementptr inbounds nuw i8, ptr %26, i64 32
  %28 = load ptr, ptr %27, align 8, !tbaa !26
  %29 = load ptr, ptr %28, align 8, !tbaa !29
  store double %25, ptr %29, align 8, !tbaa !9
  %30 = getelementptr inbounds nuw i8, ptr %28, i64 8
  %31 = load ptr, ptr %30, align 8, !tbaa !29
  store double %20, ptr %31, align 8, !tbaa !9
  %32 = getelementptr inbounds nuw i8, ptr %28, i64 16
  %33 = load ptr, ptr %32, align 8, !tbaa !29
  store double -1.000000e+00, ptr %33, align 8, !tbaa !9
  %34 = fmul double %19, %22
  %35 = getelementptr inbounds nuw i8, ptr %29, i64 8
  store double %34, ptr %35, align 8, !tbaa !9
  %36 = fmul double %24, 2.000000e+00
  %37 = fmul double %17, %36
  %38 = tail call double @llvm.fmuladd.f64(double %22, double %19, double %37)
  %39 = fsub double %1, %38
  %40 = getelementptr inbounds nuw i8, ptr %31, i64 8
  store double %39, ptr %40, align 8, !tbaa !9
  %41 = getelementptr inbounds nuw i8, ptr %33, i64 8
  store double -1.000000e+00, ptr %41, align 8, !tbaa !9
  %42 = fmul double %17, %22
  %43 = getelementptr inbounds nuw i8, ptr %29, i64 16
  store double %42, ptr %43, align 8, !tbaa !9
  %44 = fneg double %22
  %45 = fmul double %17, %44
  %46 = getelementptr inbounds nuw i8, ptr %31, i64 16
  store double %45, ptr %46, align 8, !tbaa !9
  %47 = getelementptr inbounds nuw i8, ptr %33, i64 16
  store double -1.000000e+00, ptr %47, align 8, !tbaa !9
  ret i32 0
}